target datalayout = "e-m:e-p270:32:32-p271:32:32-p272:64:64-i64:64-i128:128-f80:128-n8:16:32:64-S128"
target triple = "x86_64-pc-linux-gnu"

%struct.H5HF_t = type { ptr, ptr }
%struct.H5HF_hdr_t = type { %struct.H5C_cache_entry_t, i32, i32, i8, i8, i8, i8, %struct.H5HF_dtable_t, i64, i64, i32, i64, i64, %struct.H5O_pline_t, i64, i32, i64, i64, i64, i64, i64, i64, i64, i64, i64, i64, i64, i32, ptr, i64, i8, i8, i8, ptr, i32, ptr, %struct.H5HF_block_iter_t, ptr, i64, i8, i8, i64, i8, i8, i8, i8 }
%struct.H5C_cache_entry_t = type { ptr, i64, i64, ptr, i8, ptr, i8, i8, i8, i8, i32, i8, i8, i8, i8, i8, i32, ptr, i32, i32, i32, i32, i32, i8, i8, ptr, ptr, ptr, ptr, ptr, ptr, i8, i32, i8, i64, ptr, i64, i64, i32, i8, i32, i32, i8, ptr, ptr, ptr }
%struct.H5HF_dtable_t = type { %struct.H5HF_dtable_cparam_t, i64, i32, i32, i32, i32, i32, i32, i32, i64, ptr, ptr, ptr, ptr }
%struct.H5HF_dtable_cparam_t = type { i32, i64, i64, i32, i32 }
%struct.H5O_pline_t = type { %struct.H5O_shared_t, i32, i64, i64, ptr }
%struct.H5O_shared_t = type { i32, ptr, i32, %union.anon }
%union.anon = type { %struct.H5O_mesg_loc_t }
%struct.H5O_mesg_loc_t = type { i32, i64 }
%struct.H5HF_block_iter_t = type { i8, ptr }

@H5HF_init_g = global i8 0, align 1
@H5_libterm_g = external global i8, align 1
@.str = private unnamed_addr constant [98 x i8] c"generated/home/dtcxzyw/WorkSpace/Projects/compilers/llvm-opt-benchmark/bench/hdf5/hdf5/src/H5HF.c\00", align 1
@H5E_HEAP_g = external global i64, align 8
@H5E_CANTPROTECT_g = external global i64, align 8
@.str.3 = private unnamed_addr constant [38 x i8] c"unable to protect fractal heap header\00", align 1
@__func__.H5HF_close = private unnamed_addr constant [11 x i8] c"H5HF_close\00", align 1
@H5E_CANTRELEASE_g = external global i64, align 8
@.str.33 = private unnamed_addr constant [30 x i8] c"can't release free space info\00", align 1
@.str.34 = private unnamed_addr constant [27 x i8] c"can't reset block iterator\00", align 1
@.str.35 = private unnamed_addr constant [33 x i8] c"can't release 'huge' object info\00", align 1
@H5E_CANTDEC_g = external global i64, align 8
@.str.36 = private unnamed_addr constant [54 x i8] c"can't decrement reference count on shared heap header\00", align 1
@H5E_CANTDELETE_g = external global i64, align 8
@.str.37 = private unnamed_addr constant [30 x i8] c"unable to delete fractal heap\00", align 1
@H5_H5HF_t_reg_free_list = internal global { i8, [3 x i8], i32, i32, [4 x i8], ptr, i64, ptr } { i8 0, [3 x i8] zeroinitializer, i32 0, i32 0, [4 x i8] zeroinitializer, ptr @.str.38, i64 16, ptr null }, align 8

; Function Attrs: nounwind uwtable
define i32 @H5HF_close(ptr noundef %0) #0 {
  %2 = alloca i32, align 4
  %3 = alloca ptr, align 8
  %4 = alloca i8, align 1
  %5 = alloca i64, align 8
  %6 = alloca i32, align 4
  %7 = alloca i8, align 1
  %8 = alloca ptr, align 8
  %9 = alloca i32, align 4
  store ptr %0, ptr %3, align 8, !tbaa !17
  call void @llvm.lifetime.start.p0(i64 1, ptr %4) #6
  store i8 0, ptr %4, align 1, !tbaa !9
  call void @llvm.lifetime.start.p0(i64 8, ptr %5) #6
  store i64 -1, ptr %5, align 8, !tbaa !7
  call void @llvm.lifetime.start.p0(i64 4, ptr %6) #6
  store i32 0, ptr %6, align 4, !tbaa !24
  call void @llvm.lifetime.start.p0(i64 1, ptr %7) #6
  store i8 0, ptr %7, align 1, !tbaa !9
  %10 = load i8, ptr @H5HF_init_g, align 1, !tbaa !9, !range !11, !noundef !12
  %11 = trunc i8 %10 to i1
  br i1 %11, label %16, label %12

12:                                               ; preds = %1
  %13 = load i8, ptr @H5_libterm_g, align 1, !tbaa !9, !range !11, !noundef !12
  %14 = trunc i8 %13 to i1
  %15 = xor i1 %14, true
  br label %16

16:                                               ; preds = %12, %1
  %17 = phi i1 [ false, %1 ], [ %15, %12 ]
  %18 = xor i1 %17, true
  %19 = xor i1 %18, true
  %20 = zext i1 %19 to i32
  %21 = sext i32 %20 to i64
  %22 = call i64 @llvm.expect.i64(i64 %21, i64 0)
  %23 = icmp ne i64 %22, 0
  br i1 %23, label %24, label %25

24:                                               ; preds = %16
  store i8 1, ptr @H5HF_init_g, align 1, !tbaa !9
  br label %25

25:                                               ; preds = %24, %16
  %26 = load i8, ptr @H5HF_init_g, align 1, !tbaa !9, !range !11, !noundef !12
  %27 = trunc i8 %26 to i1
  br i1 %27, label %32, label %28

28:                                               ; preds = %25
  %29 = load i8, ptr @H5_libterm_g, align 1, !tbaa !9, !range !11, !noundef !12
  %30 = trunc i8 %29 to i1
  %31 = xor i1 %30, true
  br label %32

32:                                               ; preds = %28, %25
  %33 = phi i1 [ true, %25 ], [ %31, %28 ]
  %34 = xor i1 %33, true
  %35 = xor i1 %34, true
  %36 = zext i1 %35 to i32
  %37 = sext i32 %36 to i64
  %38 = call i64 @llvm.expect.i64(i64 %37, i64 1)
  %39 = icmp ne i64 %38, 0
  br i1 %39, label %40, label %235

40:                                               ; preds = %32
  %41 = load ptr, ptr %3, align 8, !tbaa !17
  %42 = getelementptr inbounds nuw %struct.H5HF_t, ptr %41, i32 0, i32 0
  %43 = load ptr, ptr %42, align 8, !tbaa !21
  %44 = call i64 @H5HF__hdr_fuse_decr(ptr noundef %43)
  %45 = icmp eq i64 0, %44
  br i1 %45, label %46, label %150

46:                                               ; preds = %40
  %47 = load ptr, ptr %3, align 8, !tbaa !17
  %48 = getelementptr inbounds nuw %struct.H5HF_t, ptr %47, i32 0, i32 1
  %49 = load ptr, ptr %48, align 8, !tbaa !23
  %50 = load ptr, ptr %3, align 8, !tbaa !17
  %51 = getelementptr inbounds nuw %struct.H5HF_t, ptr %50, i32 0, i32 0
  %52 = load ptr, ptr %51, align 8, !tbaa !21
  %53 = getelementptr inbounds nuw %struct.H5HF_hdr_t, ptr %52, i32 0, i32 28
  store ptr %49, ptr %53, align 8, !tbaa !26
  %54 = load ptr, ptr %3, align 8, !tbaa !17
  %55 = getelementptr inbounds nuw %struct.H5HF_t, ptr %54, i32 0, i32 0
  %56 = load ptr, ptr %55, align 8, !tbaa !21
  %57 = call i32 @H5HF__space_close(ptr noundef %56)
  %58 = icmp slt i32 %57, 0
  br i1 %58, label %59, label %78

59:                                               ; preds = %46
  br label %60

60:                                               ; preds = %59
  br label %61

61:                                               ; preds = %60
  br label %62

62:                                               ; preds = %61
  %63 = load i64, ptr @H5E_HEAP_g, align 8, !tbaa !7
  %64 = load i64, ptr @H5E_CANTRELEASE_g, align 8, !tbaa !7
  %65 = call i32 (ptr, ptr, i32, i64, i64, ptr, ...) @H5E_printf_stack(ptr noundef @.str, ptr noundef @__func__.H5HF_close, i32 noundef 775, i64 noundef %63, i64 noundef %64, ptr noundef @.str.33)
  br label %66

66:                                               ; preds = %62
  br label %67

67:                                               ; preds = %66
  store i8 1, ptr %7, align 1, !tbaa !9
  %68 = load i8, ptr %7, align 1, !tbaa !9, !range !11, !noundef !12
  %69 = trunc i8 %68 to i1
  %70 = zext i1 %69 to i8
  store i8 %70, ptr %7, align 1, !tbaa !9
  br label %71

71:                                               ; preds = %67
  br label %72

72:                                               ; preds = %71
  br label %73

73:                                               ; preds = %72
  store i32 -1, ptr %6, align 4, !tbaa !24
  br label %232

74:                                               ; No predecessors!
  br label %75

75:                                               ; preds = %74
  br label %76

76:                                               ; preds = %75
  br label %77

77:                                               ; preds = %76
  br label %78

78:                                               ; preds = %77, %46
  %79 = load ptr, ptr %3, align 8, !tbaa !17
  %80 = getelementptr inbounds nuw %struct.H5HF_t, ptr %79, i32 0, i32 0
  %81 = load ptr, ptr %80, align 8, !tbaa !21
  %82 = getelementptr inbounds nuw %struct.H5HF_hdr_t, ptr %81, i32 0, i32 36
  %83 = call zeroext i1 @H5HF__man_iter_ready(ptr noundef %82)
  br i1 %83, label %84, label %111

84:                                               ; preds = %78
  %85 = load ptr, ptr %3, align 8, !tbaa !17
  %86 = getelementptr inbounds nuw %struct.H5HF_t, ptr %85, i32 0, i32 0
  %87 = load ptr, ptr %86, align 8, !tbaa !21
  %88 = getelementptr inbounds nuw %struct.H5HF_hdr_t, ptr %87, i32 0, i32 36
  %89 = call i32 @H5HF__man_iter_reset(ptr noundef %88)
  %90 = icmp slt i32 %89, 0
  br i1 %90, label %91, label %110

91:                                               ; preds = %84
  br label %92

92:                                               ; preds = %91
  br label %93

93:                                               ; preds = %92
  br label %94

94:                                               ; preds = %93
  %95 = load i64, ptr @H5E_HEAP_g, align 8, !tbaa !7
  %96 = load i64, ptr @H5E_CANTRELEASE_g, align 8, !tbaa !7
  %97 = call i32 (ptr, ptr, i32, i64, i64, ptr, ...) @H5E_printf_stack(ptr noundef @.str, ptr noundef @__func__.H5HF_close, i32 noundef 785, i64 noundef %95, i64 noundef %96, ptr noundef @.str.34)
  br label %98

98:                                               ; preds = %94
  br label %99

99:                                               ; preds = %98
  store i8 1, ptr %7, align 1, !tbaa !9
  %100 = load i8, ptr %7, align 1, !tbaa !9, !range !11, !noundef !12
  %101 = trunc i8 %100 to i1
  %102 = zext i1 %101 to i8
  store i8 %102, ptr %7, align 1, !tbaa !9
  br label %103

103:                                              ; preds = %99
  br label %104

104:                                              ; preds = %103
  br label %105

105:                                              ; preds = %104
  store i32 -1, ptr %6, align 4, !tbaa !24
  br label %232

106:                                              ; No predecessors!
  br label %107

107:                                              ; preds = %106
  br label %108

108:                                              ; preds = %107
  br label %109

109:                                              ; preds = %108
  br label %110

110:                                              ; preds = %109, %84
  br label %111

111:                                              ; preds = %110, %78
  %112 = load ptr, ptr %3, align 8, !tbaa !17
  %113 = getelementptr inbounds nuw %struct.H5HF_t, ptr %112, i32 0, i32 0
  %114 = load ptr, ptr %113, align 8, !tbaa !21
  %115 = call i32 @H5HF__huge_term(ptr noundef %114)
  %116 = icmp slt i32 %115, 0
  br i1 %116, label %117, label %136

117:                                              ; preds = %111
  br label %118

118:                                              ; preds = %117
  br label %119

119:                                              ; preds = %118
  br label %120

120:                                              ; preds = %119
  %121 = load i64, ptr @H5E_HEAP_g, align 8, !tbaa !7
  %122 = load i64, ptr @H5E_CANTRELEASE_g, align 8, !tbaa !7
  %123 = call i32 (ptr, ptr, i32, i64, i64, ptr, ...) @H5E_printf_stack(ptr noundef @.str, ptr noundef @__func__.H5HF_close, i32 noundef 793, i64 noundef %121, i64 noundef %122, ptr noundef @.str.35)
  br label %124

124:                                              ; preds = %120
  br label %125

125:                                              ; preds = %124
  store i8 1, ptr %7, align 1, !tbaa !9
  %126 = load i8, ptr %7, align 1, !tbaa !9, !range !11, !noundef !12
  %127 = trunc i8 %126 to i1
  %128 = zext i1 %127 to i8
  store i8 %128, ptr %7, align 1, !tbaa !9
  br label %129

129:                                              ; preds = %125
  br label %130

130:                                              ; preds = %129
  br label %131

131:                                              ; preds = %130
  store i32 -1, ptr %6, align 4, !tbaa !24
  br label %232

132:                                              ; No predecessors!
  br label %133

133:                                              ; preds = %132
  br label %134

134:                                              ; preds = %133
  br label %135

135:                                              ; preds = %134
  br label %136

136:                                              ; preds = %135, %111
  %137 = load ptr, ptr %3, align 8, !tbaa !17
  %138 = getelementptr inbounds nuw %struct.H5HF_t, ptr %137, i32 0, i32 0
  %139 = load ptr, ptr %138, align 8, !tbaa !21
  %140 = getelementptr inbounds nuw %struct.H5HF_hdr_t, ptr %139, i32 0, i32 30
  %141 = load i8, ptr %140, align 8, !tbaa !45, !range !11, !noundef !12
  %142 = trunc i8 %141 to i1
  br i1 %142, label %143, label %149

143:                                              ; preds = %136
  store i8 1, ptr %4, align 1, !tbaa !9
  %144 = load ptr, ptr %3, align 8, !tbaa !17
  %145 = getelementptr inbounds nuw %struct.H5HF_t, ptr %144, i32 0, i32 0
  %146 = load ptr, ptr %145, align 8, !tbaa !21
  %147 = getelementptr inbounds nuw %struct.H5HF_hdr_t, ptr %146, i32 0, i32 25
  %148 = load i64, ptr %147, align 8, !tbaa !46
  store i64 %148, ptr %5, align 8, !tbaa !7
  br label %149

149:                                              ; preds = %143, %136
  br label %150

150:                                              ; preds = %149, %40
  %151 = load ptr, ptr %3, align 8, !tbaa !17
  %152 = getelementptr inbounds nuw %struct.H5HF_t, ptr %151, i32 0, i32 0
  %153 = load ptr, ptr %152, align 8, !tbaa !21
  %154 = call i32 @H5HF__hdr_decr(ptr noundef %153)
  %155 = icmp slt i32 %154, 0
  br i1 %155, label %156, label %175

156:                                              ; preds = %150
  br label %157

157:                                              ; preds = %156
  br label %158

158:                                              ; preds = %157
  br label %159

159:                                              ; preds = %158
  %160 = load i64, ptr @H5E_HEAP_g, align 8, !tbaa !7
  %161 = load i64, ptr @H5E_CANTDEC_g, align 8, !tbaa !7
  %162 = call i32 (ptr, ptr, i32, i64, i64, ptr, ...) @H5E_printf_stack(ptr noundef @.str, ptr noundef @__func__.H5HF_close, i32 noundef 810, i64 noundef %160, i64 noundef %161, ptr noundef @.str.36)
  br label %163

163:                                              ; preds = %159
  br label %164

164:                                              ; preds = %163
  store i8 1, ptr %7, align 1, !tbaa !9
  %165 = load i8, ptr %7, align 1, !tbaa !9, !range !11, !noundef !12
  %166 = trunc i8 %165 to i1
  %167 = zext i1 %166 to i8
  store i8 %167, ptr %7, align 1, !tbaa !9
  br label %168

168:                                              ; preds = %164
  br label %169

169:                                              ; preds = %168
  br label %170

170:                                              ; preds = %169
  store i32 -1, ptr %6, align 4, !tbaa !24
  br label %232

171:                                              ; No predecessors!
  br label %172

172:                                              ; preds = %171
  br label %173

173:                                              ; preds = %172
  br label %174

174:                                              ; preds = %173
  br label %175

175:                                              ; preds = %174, %150
  %176 = load i8, ptr %4, align 1, !tbaa !9, !range !11, !noundef !12
  %177 = trunc i8 %176 to i1
  br i1 %177, label %178, label %231

178:                                              ; preds = %175
  call void @llvm.lifetime.start.p0(i64 8, ptr %8) #6
  %179 = load ptr, ptr %3, align 8, !tbaa !17
  %180 = getelementptr inbounds nuw %struct.H5HF_t, ptr %179, i32 0, i32 1
  %181 = load ptr, ptr %180, align 8, !tbaa !23
  %182 = load i64, ptr %5, align 8, !tbaa !7
  %183 = call ptr @H5HF__hdr_protect(ptr noundef %181, i64 noundef %182, i32 noundef 0)
  store ptr %183, ptr %8, align 8, !tbaa !19
  %184 = icmp eq ptr null, %183
  br i1 %184, label %185, label %204

185:                                              ; preds = %178
  br label %186

186:                                              ; preds = %185
  br label %187

187:                                              ; preds = %186
  br label %188

188:                                              ; preds = %187
  %189 = load i64, ptr @H5E_HEAP_g, align 8, !tbaa !7
  %190 = load i64, ptr @H5E_CANTPROTECT_g, align 8, !tbaa !7
  %191 = call i32 (ptr, ptr, i32, i64, i64, ptr, ...) @H5E_printf_stack(ptr noundef @.str, ptr noundef @__func__.H5HF_close, i32 noundef 818, i64 noundef %189, i64 noundef %190, ptr noundef @.str.3)
  br label %192

192:                                              ; preds = %188
  br label %193

193:                                              ; preds = %192
  store i8 1, ptr %7, align 1, !tbaa !9
  %194 = load i8, ptr %7, align 1, !tbaa !9, !range !11, !noundef !12
  %195 = trunc i8 %194 to i1
  %196 = zext i1 %195 to i8
  store i8 %196, ptr %7, align 1, !tbaa !9
  br label %197

197:                                              ; preds = %193
  br label %198

198:                                              ; preds = %197
  br label %199

199:                                              ; preds = %198
  store i32 -1, ptr %6, align 4, !tbaa !24
  store i32 10, ptr %9, align 4
  br label %228

200:                                              ; No predecessors!
  br label %201

201:                                              ; preds = %200
  br label %202

202:                                              ; preds = %201
  br label %203

203:                                              ; preds = %202
  br label %204

204:                                              ; preds = %203, %178
  %205 = load ptr, ptr %8, align 8, !tbaa !19
  %206 = call i32 @H5HF__hdr_delete(ptr noundef %205)
  %207 = icmp slt i32 %206, 0
  br i1 %207, label %208, label %227

208:                                              ; preds = %204
  br label %209

209:                                              ; preds = %208
  br label %210

210:                                              ; preds = %209
  br label %211

211:                                              ; preds = %210
  %212 = load i64, ptr @H5E_HEAP_g, align 8, !tbaa !7
  %213 = load i64, ptr @H5E_CANTDELETE_g, align 8, !tbaa !7
  %214 = call i32 (ptr, ptr, i32, i64, i64, ptr, ...) @H5E_printf_stack(ptr noundef @.str, ptr noundef @__func__.H5HF_close, i32 noundef 822, i64 noundef %212, i64 noundef %213, ptr noundef @.str.37)
  br label %215

215:                                              ; preds = %211
  br label %216

216:                                              ; preds = %215
  store i8 1, ptr %7, align 1, !tbaa !9
  %217 = load i8, ptr %7, align 1, !tbaa !9, !range !11, !noundef !12
  %218 = trunc i8 %217 to i1
  %219 = zext i1 %218 to i8
  store i8 %219, ptr %7, align 1, !tbaa !9
  br label %220

220:                                              ; preds = %216
  br label %221

221:                                              ; preds = %220
  br label %222

222:                                              ; preds = %221
  store i32 -1, ptr %6, align 4, !tbaa !24
  store i32 10, ptr %9, align 4
  br label %228

223:                                              ; No predecessors!
  br label %224

224:                                              ; preds = %223
  br label %225

225:                                              ; preds = %224
  br label %226

226:                                              ; preds = %225
  br label %227

227:                                              ; preds = %226, %204
  store i32 0, ptr %9, align 4
  br label %228

228:                                              ; preds = %222, %199, %227
  call void @llvm.lifetime.end.p0(i64 8, ptr %8) #6
  %229 = load i32, ptr %9, align 4
  switch i32 %229, label %237 [
    i32 0, label %230
    i32 10, label %232
  ]

230:                                              ; preds = %228
  br label %231

231:                                              ; preds = %230, %175
  br label %232

232:                                              ; preds = %231, %228, %170, %131, %105, %73
  %233 = load ptr, ptr %3, align 8, !tbaa !17
  %234 = call ptr @H5FL_reg_free(ptr noundef @H5_H5HF_t_reg_free_list, ptr noundef %233)
  store ptr %234, ptr %3, align 8, !tbaa !17
  br label %235

235:                                              ; preds = %232, %32
  %236 = load i32, ptr %6, align 4, !tbaa !24
  store i32 %236, ptr %2, align 4
  store i32 1, ptr %9, align 4
  br label %237

237:                                              ; preds = %235, %228
  call void @llvm.lifetime.end.p0(i64 1, ptr %7) #6
  call void @llvm.lifetime.end.p0(i64 4, ptr %6) #6
  call void @llvm.lifetime.end.p0(i64 8, ptr %5) #6
  call void @llvm.lifetime.end.p0(i64 1, ptr %4) #6
  %238 = load i32, ptr %2, align 4
  ret i32 %238
}