; Function Attrs: nounwind uwtable
define range(i32 -1, 1) i32 @H5HF_close(ptr noundef %0) local_unnamed_addr #2 {
  %2 = load i8, ptr @H5HF_init_g, align 1, !tbaa !3, !range !7, !noundef !8
  %3 = trunc nuw i8 %2 to i1
  %4 = load i8, ptr @H5_libterm_g, align 1, !range !7
  %5 = trunc nuw i8 %4 to i1
  %6 = select i1 %3, i1 true, i1 %5
  br i1 %6, label %7, label %.thread, !prof !9

.thread:                                          ; preds = %1
  store i8 1, ptr @H5HF_init_g, align 1, !tbaa !3
  br label %10

7:                                                ; preds = %1
  %8 = xor i1 %5, true
  %9 = select i1 %3, i1 true, i1 %8
  br i1 %9, label %10, label %79, !prof !10

10:                                               ; preds = %.thread, %7
  %11 = load ptr, ptr %0, align 8, !tbaa !13
  %12 = tail call i64 @H5HF__hdr_fuse_decr(ptr noundef %11) #5
  %13 = icmp eq i64 %12, 0
  %.pre = load ptr, ptr %0, align 8, !tbaa !13
  br i1 %13, label %14, label %50

14:                                               ; preds = %10
  %15 = getelementptr inbounds nuw i8, ptr %0, i64 8
  %16 = load ptr, ptr %15, align 8, !tbaa !18
  %17 = getelementptr inbounds nuw i8, ptr %.pre, i64 600
  store ptr %16, ptr %17, align 8, !tbaa !19
  %18 = tail call i32 @H5HF__space_close(ptr noundef %.pre) #5
  %19 = icmp slt i32 %18, 0
  br i1 %19, label %20, label %24

20:                                               ; preds = %14
  %21 = load i64, ptr @H5E_HEAP_g, align 8, !tbaa !11
  %22 = load i64, ptr @H5E_CANTRELEASE_g, align 8, !tbaa !11
  %23 = tail call i32 (ptr, ptr, i32, i64, i64, ptr, ...) @H5E_printf_stack(ptr noundef nonnull @.str, ptr noundef nonnull @__func__.H5HF_close, i32 noundef 775, i64 noundef %21, i64 noundef %22, ptr noundef nonnull @.str.33) #5
  br label %77

24:                                               ; preds = %14
  %25 = load ptr, ptr %0, align 8, !tbaa !13
  %26 = getelementptr inbounds nuw i8, ptr %25, i64 648
  %27 = tail call zeroext i1 @H5HF__man_iter_ready(ptr noundef nonnull %26) #5
  br i1 %27, label %28, label %37

28:                                               ; preds = %24
  %29 = load ptr, ptr %0, align 8, !tbaa !13
  %30 = getelementptr inbounds nuw i8, ptr %29, i64 648
  %31 = tail call i32 @H5HF__man_iter_reset(ptr noundef nonnull %30) #5
  %32 = icmp slt i32 %31, 0
  br i1 %32, label %33, label %37

33:                                               ; preds = %28
  %34 = load i64, ptr @H5E_HEAP_g, align 8, !tbaa !11
  %35 = load i64, ptr @H5E_CANTRELEASE_g, align 8, !tbaa !11
  %36 = tail call i32 (ptr, ptr, i32, i64, i64, ptr, ...) @H5E_printf_stack(ptr noundef nonnull @.str, ptr noundef nonnull @__func__.H5HF_close, i32 noundef 785, i64 noundef %34, i64 noundef %35, ptr noundef nonnull @.str.34) #5
  br label %77

37:                                               ; preds = %28, %24
  %38 = load ptr, ptr %0, align 8, !tbaa !13
  %39 = tail call i32 @H5HF__huge_term(ptr noundef %38) #5
  %40 = icmp slt i32 %39, 0
  br i1 %40, label %41, label %45

41:                                               ; preds = %37
  %42 = load i64, ptr @H5E_HEAP_g, align 8, !tbaa !11
  %43 = load i64, ptr @H5E_CANTRELEASE_g, align 8, !tbaa !11
  %44 = tail call i32 (ptr, ptr, i32, i64, i64, ptr, ...) @H5E_printf_stack(ptr noundef nonnull @.str, ptr noundef nonnull @__func__.H5HF_close, i32 noundef 793, i64 noundef %42, i64 noundef %43, ptr noundef nonnull @.str.35) #5
  br label %77

45:                                               ; preds = %37
  %46 = load ptr, ptr %0, align 8, !tbaa !13
  %47 = getelementptr inbounds nuw i8, ptr %46, i64 616
  %48 = load i8, ptr %47, align 8, !tbaa !39, !range !7, !noundef !8
  %49 = trunc nuw i8 %48 to i1
  br i1 %49, label %.thread28, label %50

50:                                               ; preds = %45, %10
  %51 = phi ptr [ %46, %45 ], [ %.pre, %10 ]
  %52 = tail call i32 @H5HF__hdr_decr(ptr noundef %51) #5
  %53 = icmp slt i32 %52, 0
  br i1 %53, label %58, label %77

.thread28:                                        ; preds = %45
  %54 = getelementptr inbounds nuw i8, ptr %46, i64 576
  %55 = load i64, ptr %54, align 8, !tbaa !40
  %56 = tail call i32 @H5HF__hdr_decr(ptr noundef nonnull %46) #5
  %57 = icmp slt i32 %56, 0
  br i1 %57, label %58, label %62

58:                                               ; preds = %.thread28, %50
  %59 = load i64, ptr @H5E_HEAP_g, align 8, !tbaa !11
  %60 = load i64, ptr @H5E_CANTDEC_g, align 8, !tbaa !11
  %61 = tail call i32 (ptr, ptr, i32, i64, i64, ptr, ...) @H5E_printf_stack(ptr noundef nonnull @.str, ptr noundef nonnull @__func__.H5HF_close, i32 noundef 810, i64 noundef %59, i64 noundef %60, ptr noundef nonnull @.str.36) #5
  br label %77

62:                                               ; preds = %.thread28
  %63 = load ptr, ptr %15, align 8, !tbaa !18
  %64 = tail call ptr @H5HF__hdr_protect(ptr noundef %63, i64 noundef %55, i32 noundef 0) #5
  %65 = icmp eq ptr %64, null
  br i1 %65, label %66, label %70

66:                                               ; preds = %62
  %67 = load i64, ptr @H5E_HEAP_g, align 8, !tbaa !11
  %68 = load i64, ptr @H5E_CANTPROTECT_g, align 8, !tbaa !11
  %69 = tail call i32 (ptr, ptr, i32, i64, i64, ptr, ...) @H5E_printf_stack(ptr noundef nonnull @.str, ptr noundef nonnull @__func__.H5HF_close, i32 noundef 818, i64 noundef %67, i64 noundef %68, ptr noundef nonnull @.str.3) #5
  br label %77

70:                                               ; preds = %62
  %71 = tail call i32 @H5HF__hdr_delete(ptr noundef nonnull %64) #5
  %72 = icmp slt i32 %71, 0
  br i1 %72, label %73, label %77

73:                                               ; preds = %70
  %74 = load i64, ptr @H5E_HEAP_g, align 8, !tbaa !11
  %75 = load i64, ptr @H5E_CANTDELETE_g, align 8, !tbaa !11
  %76 = tail call i32 (ptr, ptr, i32, i64, i64, ptr, ...) @H5E_printf_stack(ptr noundef nonnull @.str, ptr noundef nonnull @__func__.H5HF_close, i32 noundef 822, i64 noundef %74, i64 noundef %75, ptr noundef nonnull @.str.37) #5
  br label %77

77:                                               ; preds = %66, %73, %70, %50, %58, %41, %33, %20
  %.1 = phi i32 [ -1, %20 ], [ -1, %33 ], [ -1, %41 ], [ -1, %58 ], [ 0, %50 ], [ -1, %66 ], [ -1, %73 ], [ 0, %70 ]
  %78 = tail call ptr @H5FL_reg_free(ptr noundef nonnull @H5_H5HF_t_reg_free_list, ptr noundef nonnull %0) #5
  br label %79

79:                                               ; preds = %7, %77
  %.023 = phi i32 [ %.1, %77 ], [ 0, %7 ]
  ret i32 %.023
}